target datalayout = "e-m:e-p270:32:32-p271:32:32-p272:64:64-i64:64-i128:128-f80:128-n8:16:32:64-S128"
target triple = "x86_64-pc-linux-gnu"

%struct.packing_data = type { ptr, ptr, i32, i32, ptr, i32, ptr, ptr, ptr, ptr, %union.pthread_mutex_t, ptr, i32, i32, i64, i64, ptr, ptr, ptr }
%union.pthread_mutex_t = type { %struct.__pthread_mutex_s }
%struct.__pthread_mutex_s = type { i32, i32, i32, i32, i32, i16, i16, %struct.__pthread_internal_list }
%struct.__pthread_internal_list = type { ptr, ptr }
%struct.object_entry = type { %struct.pack_idx_entry, ptr, i64, i32, i32, i32, i32, i32, [3 x i8], i8, i64 }
%struct.pack_idx_entry = type { %struct.object_id, i32, i64 }
%struct.object_id = type { [32 x i8], i32 }
%struct.object_info = type { ptr, ptr, ptr, ptr, ptr, ptr, i32, %union.anon }
%union.anon = type { %struct.anon }
%struct.anon = type { ptr, i64, i32 }

@to_pack = internal global %struct.packing_data zeroinitializer, align 8
@the_repository = external global ptr, align 8
@.str.1 = private unnamed_addr constant [23 x i8] c"builtin/pack-objects.c\00", align 1
@.str.150 = private unnamed_addr constant [17 x i8] c"./pack-objects.h\00", align 1
@.str.151 = private unnamed_addr constant [43 x i8] c"OBJ_ANY cannot be set in pack-objects code\00", align 1
@.str.214 = private unnamed_addr constant [42 x i8] c"'size' is supposed to be the object size!\00", align 1

; Function Attrs: inlinehint nounwind uwtable
define internal void @oe_set_size(ptr noundef %0, ptr noundef %1, i64 noundef %2) #2 {
  %4 = alloca ptr, align 8
  %5 = alloca ptr, align 8
  %6 = alloca i64, align 8
  store ptr %0, ptr %4, align 8, !tbaa !4
  store ptr %1, ptr %5, align 8, !tbaa !9
  store i64 %2, ptr %6, align 8, !tbaa !13
  %7 = load i64, ptr %6, align 8, !tbaa !13
  %8 = load ptr, ptr %4, align 8, !tbaa !4
  %9 = getelementptr inbounds nuw %struct.packing_data, ptr %8, i32 0, i32 14
  %10 = load i64, ptr %9, align 8, !tbaa !295
  %11 = icmp ult i64 %7, %10
  br i1 %11, label %12, label %26

12:                                               ; preds = %3
  %13 = load i64, ptr %6, align 8, !tbaa !13
  %14 = trunc i64 %13 to i32
  %15 = load ptr, ptr %5, align 8, !tbaa !9
  %16 = getelementptr inbounds nuw %struct.object_entry, ptr %15, i32 0, i32 4
  %17 = load i32, ptr %16, align 4
  %18 = and i32 %14, 2147483647
  %19 = and i32 %17, -2147483648
  %20 = or i32 %19, %18
  store i32 %20, ptr %16, align 4
  %21 = load ptr, ptr %5, align 8, !tbaa !9
  %22 = getelementptr inbounds nuw %struct.object_entry, ptr %21, i32 0, i32 4
  %23 = load i32, ptr %22, align 4
  %24 = and i32 %23, 2147483647
  %25 = or i32 %24, -2147483648
  store i32 %25, ptr %22, align 4
  br label %39

26:                                               ; preds = %3
  %27 = load ptr, ptr %5, align 8, !tbaa !9
  %28 = getelementptr inbounds nuw %struct.object_entry, ptr %27, i32 0, i32 4
  %29 = load i32, ptr %28, align 4
  %30 = and i32 %29, 2147483647
  %31 = or i32 %30, 0
  store i32 %31, ptr %28, align 4
  %32 = load ptr, ptr %4, align 8, !tbaa !4
  %33 = load ptr, ptr %5, align 8, !tbaa !9
  %34 = call i64 @oe_get_size_slow(ptr noundef %32, ptr noundef %33)
  %35 = load i64, ptr %6, align 8, !tbaa !13
  %36 = icmp ne i64 %34, %35
  br i1 %36, label %37, label %38

37:                                               ; preds = %26
  call void (ptr, i32, ptr, ...) @BUG_fl(ptr noundef @.str.1, i32 noundef 151, ptr noundef @.str.214) #12
  unreachable

38:                                               ; preds = %26
  br label %39

39:                                               ; preds = %38, %12
  ret void
}

; Function Attrs: inlinehint nounwind uwtable
define internal void @oe_set_type(ptr noundef %0, i32 noundef %1) #2 {
  %3 = alloca ptr, align 8
  %4 = alloca i32, align 4
  store ptr %0, ptr %3, align 8, !tbaa !9
  store i32 %1, ptr %4, align 4, !tbaa !27
  %5 = load i32, ptr %4, align 4, !tbaa !27
  %6 = icmp sge i32 %5, 8
  br i1 %6, label %7, label %8

7:                                                ; preds = %2
  call void (ptr, i32, ptr, ...) @BUG_fl(ptr noundef @.str.150, i32 noundef 220, ptr noundef @.str.151) #12
  unreachable

8:                                                ; preds = %2
  %9 = load i32, ptr %4, align 4, !tbaa !27
  %10 = icmp sge i32 %9, 0
  %11 = zext i1 %10 to i32
  %12 = load ptr, ptr %3, align 8, !tbaa !9
  %13 = getelementptr inbounds nuw %struct.object_entry, ptr %12, i32 0, i32 10
  %14 = zext i32 %11 to i64
  %15 = load i64, ptr %13, align 8
  %16 = and i64 %14, 1
  %17 = shl i64 %16, 30
  %18 = and i64 %15, -1073741825
  %19 = or i64 %18, %17
  store i64 %19, ptr %13, align 8
  %20 = load i32, ptr %4, align 4, !tbaa !27
  %21 = load ptr, ptr %3, align 8, !tbaa !9
  %22 = getelementptr inbounds nuw %struct.object_entry, ptr %21, i32 0, i32 10
  %23 = zext i32 %20 to i64
  %24 = load i64, ptr %22, align 8
  %25 = and i64 %23, 7
  %26 = shl i64 %25, 32
  %27 = and i64 %24, -30064771073
  %28 = or i64 %27, %26
  store i64 %28, ptr %22, align 8
  ret void
}

; Function Attrs: inlinehint nounwind uwtable
define internal ptr @oe_in_pack(ptr noundef %0, ptr noundef %1) #2 {
  %3 = alloca ptr, align 8
  %4 = alloca ptr, align 8
  %5 = alloca ptr, align 8
  store ptr %0, ptr %4, align 8, !tbaa !4
  store ptr %1, ptr %5, align 8, !tbaa !9
  %6 = load ptr, ptr %4, align 8, !tbaa !4
  %7 = getelementptr inbounds nuw %struct.packing_data, ptr %6, i32 0, i32 8
  %8 = load ptr, ptr %7, align 8, !tbaa !28
  %9 = icmp ne ptr %8, null
  br i1 %9, label %10, label %22

10:                                               ; preds = %2
  %11 = load ptr, ptr %4, align 8, !tbaa !4
  %12 = getelementptr inbounds nuw %struct.packing_data, ptr %11, i32 0, i32 8
  %13 = load ptr, ptr %12, align 8, !tbaa !28
  %14 = load ptr, ptr %5, align 8, !tbaa !9
  %15 = getelementptr inbounds nuw %struct.object_entry, ptr %14, i32 0, i32 10
  %16 = load i64, ptr %15, align 8
  %17 = and i64 %16, 1023
  %18 = trunc i64 %17 to i32
  %19 = zext i32 %18 to i64
  %20 = getelementptr inbounds nuw ptr, ptr %13, i64 %19
  %21 = load ptr, ptr %20, align 8, !tbaa !15
  store ptr %21, ptr %3, align 8
  br label %36

22:                                               ; preds = %2
  %23 = load ptr, ptr %4, align 8, !tbaa !4
  %24 = getelementptr inbounds nuw %struct.packing_data, ptr %23, i32 0, i32 9
  %25 = load ptr, ptr %24, align 8, !tbaa !33
  %26 = load ptr, ptr %5, align 8, !tbaa !9
  %27 = load ptr, ptr %4, align 8, !tbaa !4
  %28 = getelementptr inbounds nuw %struct.packing_data, ptr %27, i32 0, i32 1
  %29 = load ptr, ptr %28, align 8, !tbaa !34
  %30 = ptrtoint ptr %26 to i64
  %31 = ptrtoint ptr %29 to i64
  %32 = sub i64 %30, %31
  %33 = sdiv exact i64 %32, 96
  %34 = getelementptr inbounds ptr, ptr %25, i64 %33
  %35 = load ptr, ptr %34, align 8, !tbaa !15
  store ptr %35, ptr %3, align 8
  br label %36

36:                                               ; preds = %22, %10
  %37 = load ptr, ptr %3, align 8
  ret ptr %37
}

; Function Attrs: inlinehint nounwind uwtable
define internal void @oe_set_delta(ptr noundef %0, ptr noundef %1, ptr noundef %2) #2 {
  %4 = alloca ptr, align 8
  %5 = alloca ptr, align 8
  %6 = alloca ptr, align 8
  store ptr %0, ptr %4, align 8, !tbaa !4
  store ptr %1, ptr %5, align 8, !tbaa !9
  store ptr %2, ptr %6, align 8, !tbaa !9
  %7 = load ptr, ptr %6, align 8, !tbaa !9
  %8 = icmp ne ptr %7, null
  br i1 %8, label %9, label %22

9:                                                ; preds = %3
  %10 = load ptr, ptr %6, align 8, !tbaa !9
  %11 = load ptr, ptr %4, align 8, !tbaa !4
  %12 = getelementptr inbounds nuw %struct.packing_data, ptr %11, i32 0, i32 1
  %13 = load ptr, ptr %12, align 8, !tbaa !34
  %14 = ptrtoint ptr %10 to i64
  %15 = ptrtoint ptr %13 to i64
  %16 = sub i64 %14, %15
  %17 = sdiv exact i64 %16, 96
  %18 = add nsw i64 %17, 1
  %19 = trunc i64 %18 to i32
  %20 = load ptr, ptr %5, align 8, !tbaa !9
  %21 = getelementptr inbounds nuw %struct.object_entry, ptr %20, i32 0, i32 5
  store i32 %19, ptr %21, align 8, !tbaa !293
  br label %25

22:                                               ; preds = %3
  %23 = load ptr, ptr %5, align 8, !tbaa !9
  %24 = getelementptr inbounds nuw %struct.object_entry, ptr %23, i32 0, i32 5
  store i32 0, ptr %24, align 8, !tbaa !293
  br label %25

25:                                               ; preds = %22, %9
  ret void
}

; Function Attrs: nounwind uwtable
define internal void @drop_reused_delta(ptr noundef %0) #0 {
  %2 = alloca ptr, align 8
  %3 = alloca ptr, align 8
  %4 = alloca %struct.object_info, align 8
  %5 = alloca i32, align 4
  %6 = alloca i64, align 8
  %7 = alloca ptr, align 8
  store ptr %0, ptr %2, align 8, !tbaa !9
  call void @llvm.lifetime.start.p0(i64 8, ptr %3) #11
  %8 = load ptr, ptr getelementptr inbounds nuw (%struct.packing_data, ptr @to_pack, i32 0, i32 1), align 8, !tbaa !34
  %9 = load ptr, ptr %2, align 8, !tbaa !9
  %10 = getelementptr inbounds nuw %struct.object_entry, ptr %9, i32 0, i32 5
  %11 = load i32, ptr %10, align 8, !tbaa !293
  %12 = sub i32 %11, 1
  %13 = zext i32 %12 to i64
  %14 = getelementptr inbounds nuw %struct.object_entry, ptr %8, i64 %13
  %15 = getelementptr inbounds nuw %struct.object_entry, ptr %14, i32 0, i32 6
  store ptr %15, ptr %3, align 8, !tbaa !129
  call void @llvm.lifetime.start.p0(i64 80, ptr %4) #11
  call void @llvm.memset.p0.i64(ptr align 8 %4, i8 0, i64 80, i1 false)
  call void @llvm.lifetime.start.p0(i64 4, ptr %5) #11
  call void @llvm.lifetime.start.p0(i64 8, ptr %6) #11
  br label %16

16:                                               ; preds = %38, %1
  %17 = load ptr, ptr %3, align 8, !tbaa !129
  %18 = load i32, ptr %17, align 4, !tbaa !27
  %19 = icmp ne i32 %18, 0
  br i1 %19, label %20, label %39

20:                                               ; preds = %16
  call void @llvm.lifetime.start.p0(i64 8, ptr %7) #11
  %21 = load ptr, ptr getelementptr inbounds nuw (%struct.packing_data, ptr @to_pack, i32 0, i32 1), align 8, !tbaa !34
  %22 = load ptr, ptr %3, align 8, !tbaa !129
  %23 = load i32, ptr %22, align 4, !tbaa !27
  %24 = sub i32 %23, 1
  %25 = zext i32 %24 to i64
  %26 = getelementptr inbounds nuw %struct.object_entry, ptr %21, i64 %25
  store ptr %26, ptr %7, align 8, !tbaa !9
  %27 = load ptr, ptr %7, align 8, !tbaa !9
  %28 = load ptr, ptr %2, align 8, !tbaa !9
  %29 = icmp eq ptr %27, %28
  br i1 %29, label %30, label %35

30:                                               ; preds = %20
  %31 = load ptr, ptr %7, align 8, !tbaa !9
  %32 = getelementptr inbounds nuw %struct.object_entry, ptr %31, i32 0, i32 7
  %33 = load i32, ptr %32, align 8, !tbaa !321
  %34 = load ptr, ptr %3, align 8, !tbaa !129
  store i32 %33, ptr %34, align 4, !tbaa !27
  br label %38

35:                                               ; preds = %20
  %36 = load ptr, ptr %7, align 8, !tbaa !9
  %37 = getelementptr inbounds nuw %struct.object_entry, ptr %36, i32 0, i32 7
  store ptr %37, ptr %3, align 8, !tbaa !129
  br label %38

38:                                               ; preds = %35, %30
  call void @llvm.lifetime.end.p0(i64 8, ptr %7) #11
  br label %16, !llvm.loop !332

39:                                               ; preds = %16
  %40 = load ptr, ptr %2, align 8, !tbaa !9
  call void @oe_set_delta(ptr noundef @to_pack, ptr noundef %40, ptr noundef null)
  %41 = load ptr, ptr %2, align 8, !tbaa !9
  %42 = getelementptr inbounds nuw %struct.object_entry, ptr %41, i32 0, i32 10
  %43 = load i64, ptr %42, align 8
  %44 = and i64 %43, -36020000925941761
  %45 = or i64 %44, 0
  store i64 %45, ptr %42, align 8
  %46 = getelementptr inbounds nuw %struct.object_info, ptr %4, i32 0, i32 1
  store ptr %6, ptr %46, align 8, !tbaa !315
  %47 = getelementptr inbounds nuw %struct.object_info, ptr %4, i32 0, i32 0
  store ptr %5, ptr %47, align 8, !tbaa !276
  %48 = load ptr, ptr @the_repository, align 8, !tbaa !11
  %49 = load ptr, ptr %2, align 8, !tbaa !9
  %50 = call ptr @oe_in_pack(ptr noundef @to_pack, ptr noundef %49)
  %51 = load ptr, ptr %2, align 8, !tbaa !9
  %52 = getelementptr inbounds nuw %struct.object_entry, ptr %51, i32 0, i32 2
  %53 = load i64, ptr %52, align 8, !tbaa !19
  %54 = call i32 @packed_object_info(ptr noundef %48, ptr noundef %50, i64 noundef %53, ptr noundef %4)
  %55 = icmp slt i32 %54, 0
  br i1 %55, label %56, label %63

56:                                               ; preds = %39
  %57 = load ptr, ptr %2, align 8, !tbaa !9
  %58 = load ptr, ptr @the_repository, align 8, !tbaa !11
  %59 = load ptr, ptr %2, align 8, !tbaa !9
  %60 = getelementptr inbounds nuw %struct.object_entry, ptr %59, i32 0, i32 0
  %61 = getelementptr inbounds nuw %struct.pack_idx_entry, ptr %60, i32 0, i32 0
  %62 = call i32 @oid_object_info(ptr noundef %58, ptr noundef %61, ptr noundef %6)
  call void @oe_set_type(ptr noundef %57, i32 noundef %62)
  br label %66

63:                                               ; preds = %39
  %64 = load ptr, ptr %2, align 8, !tbaa !9
  %65 = load i32, ptr %5, align 4, !tbaa !27
  call void @oe_set_type(ptr noundef %64, i32 noundef %65)
  br label %66

66:                                               ; preds = %63, %56
  %67 = load ptr, ptr %2, align 8, !tbaa !9
  %68 = load i64, ptr %6, align 8, !tbaa !13
  call void @oe_set_size(ptr noundef @to_pack, ptr noundef %67, i64 noundef %68)
  call void @llvm.lifetime.end.p0(i64 8, ptr %6) #11
  call void @llvm.lifetime.end.p0(i64 4, ptr %5) #11
  call void @llvm.lifetime.end.p0(i64 80, ptr %4) #11
  call void @llvm.lifetime.end.p0(i64 8, ptr %3) #11
  ret void
}