; Function Attrs: nounwind uwtable
define internal fastcc void @drop_reused_delta(ptr noundef nonnull %0) unnamed_addr #0 {
  %2 = alloca %struct.object_info, align 8
  %3 = alloca i32, align 4
  %4 = alloca i64, align 8
  %5 = load ptr, ptr getelementptr inbounds nuw (i8, ptr @to_pack, i64 8), align 8, !tbaa !19
  %6 = getelementptr inbounds nuw i8, ptr %0, i64 72
  %7 = load i32, ptr %6, align 8, !tbaa !176
  %8 = add i32 %7, -1
  %9 = zext i32 %8 to i64
  %10 = getelementptr inbounds nuw %struct.object_entry, ptr %5, i64 %9, i32 6
  call void @llvm.lifetime.start.p0(i64 80, ptr nonnull %2) #25
  %11 = getelementptr inbounds nuw i8, ptr %2, i64 16
  call void @llvm.memset.p0.i64(ptr noundef nonnull align 8 dereferenceable(80) %11, i8 0, i64 64, i1 false)
  call void @llvm.lifetime.start.p0(i64 4, ptr nonnull %3) #25
  call void @llvm.lifetime.start.p0(i64 8, ptr nonnull %4) #25
  %12 = load i32, ptr %10, align 4, !tbaa !30
  %.not21 = icmp eq i32 %12, 0
  br i1 %.not21, label %._crit_edge, label %.lr.ph

.lr.ph:                                           ; preds = %1, %22
  %13 = phi i32 [ %23, %22 ], [ %12, %1 ]
  %.022 = phi ptr [ %.1, %22 ], [ %10, %1 ]
  %14 = add i32 %13, -1
  %15 = zext i32 %14 to i64
  %16 = getelementptr inbounds nuw %struct.object_entry, ptr %5, i64 %15
  %17 = icmp eq ptr %16, %0
  %18 = getelementptr inbounds nuw i8, ptr %16, i64 80
  br i1 %17, label %19, label %21

19:                                               ; preds = %.lr.ph
  %20 = load i32, ptr %18, align 8, !tbaa !178
  store i32 %20, ptr %.022, align 4, !tbaa !30
  br label %22

21:                                               ; preds = %.lr.ph
  %.pre = load i32, ptr %18, align 4, !tbaa !30
  br label %22

22:                                               ; preds = %21, %19
  %23 = phi i32 [ %20, %19 ], [ %.pre, %21 ]
  %.1 = phi ptr [ %.022, %19 ], [ %18, %21 ]
  %.not = icmp eq i32 %23, 0
  br i1 %.not, label %._crit_edge, label %.lr.ph, !llvm.loop !325

._crit_edge:                                      ; preds = %22, %1
  store i32 0, ptr %6, align 8, !tbaa !176
  %24 = getelementptr inbounds nuw i8, ptr %0, i64 88
  %25 = load i64, ptr %24, align 8
  %26 = and i64 %25, -36020000925941761
  store i64 %26, ptr %24, align 8
  %27 = getelementptr inbounds nuw i8, ptr %2, i64 8
  store ptr %4, ptr %27, align 8, !tbaa !164
  store ptr %3, ptr %2, align 8, !tbaa !161
  %28 = load ptr, ptr @the_repository, align 8, !tbaa !4
  %29 = load ptr, ptr getelementptr inbounds nuw (i8, ptr @to_pack, i64 56), align 8, !tbaa !9
  %.not.i = icmp eq ptr %29, null
  br i1 %.not.i, label %33, label %30

30:                                               ; preds = %._crit_edge
  %31 = and i64 %25, 1023
  %32 = getelementptr inbounds nuw ptr, ptr %29, i64 %31
  br label %oe_in_pack.exit

33:                                               ; preds = %._crit_edge
  %34 = load ptr, ptr getelementptr inbounds nuw (i8, ptr @to_pack, i64 64), align 8, !tbaa !18
  %35 = ptrtoint ptr %0 to i64
  %36 = ptrtoint ptr %5 to i64
  %37 = sub i64 %35, %36
  %38 = sdiv exact i64 %37, 12
  %39 = getelementptr inbounds i8, ptr %34, i64 %38
  br label %oe_in_pack.exit

oe_in_pack.exit:                                  ; preds = %30, %33
  %.0.in.i = phi ptr [ %32, %30 ], [ %39, %33 ]
  %.0.i = load ptr, ptr %.0.in.i, align 8, !tbaa !20
  %40 = getelementptr inbounds nuw i8, ptr %0, i64 56
  %41 = load i64, ptr %40, align 8, !tbaa !24
  %42 = call i32 @packed_object_info(ptr noundef %28, ptr noundef %.0.i, i64 noundef %41, ptr noundef nonnull %2) #25
  %43 = icmp slt i32 %42, 0
  br i1 %43, label %44, label %49

44:                                               ; preds = %oe_in_pack.exit
  %45 = load ptr, ptr @the_repository, align 8, !tbaa !4
  %46 = call i32 @oid_object_info(ptr noundef %45, ptr noundef nonnull %0, ptr noundef nonnull %4) #25
  %47 = icmp sgt i32 %46, 7
  br i1 %47, label %48, label %oe_set_type.exit

48:                                               ; preds = %44
  call void (ptr, i32, ptr, ...) @BUG_fl(ptr noundef nonnull @.str.150, i32 noundef 220, ptr noundef nonnull @.str.151) #26
  unreachable

49:                                               ; preds = %oe_in_pack.exit
  %50 = load i32, ptr %3, align 4, !tbaa !30
  %51 = icmp sgt i32 %50, 7
  br i1 %51, label %52, label %oe_set_type.exit

52:                                               ; preds = %49
  call void (ptr, i32, ptr, ...) @BUG_fl(ptr noundef nonnull @.str.150, i32 noundef 220, ptr noundef nonnull @.str.151) #26
  unreachable

oe_set_type.exit:                                 ; preds = %49, %44
  %.sink = phi i32 [ %46, %44 ], [ %50, %49 ]
  %53 = icmp sgt i32 %.sink, -1
  %54 = load i64, ptr %24, align 8
  %55 = select i1 %53, i64 1073741824, i64 0
  %56 = and i64 %54, -31138512897
  %57 = or disjoint i64 %55, %56
  %58 = and i32 %.sink, 7
  %59 = zext nneg i32 %58 to i64
  %60 = shl nuw nsw i64 %59, 32
  %61 = or disjoint i64 %57, %60
  store i64 %61, ptr %24, align 8
  %62 = load i64, ptr %4, align 8, !tbaa !28
  %63 = load i64, ptr getelementptr inbounds nuw (i8, ptr @to_pack, i64 128), align 8, !tbaa !165
  %64 = icmp ult i64 %62, %63
  br i1 %64, label %65, label %69

65:                                               ; preds = %oe_set_type.exit
  %66 = trunc i64 %62 to i32
  %67 = getelementptr inbounds nuw i8, ptr %0, i64 68
  %68 = or i32 %66, -2147483648
  store i32 %68, ptr %67, align 4
  br label %oe_set_size.exit

69:                                               ; preds = %oe_set_type.exit
  %70 = getelementptr inbounds nuw i8, ptr %0, i64 68
  %71 = load i32, ptr %70, align 4
  %72 = and i32 %71, 2147483647
  store i32 %72, ptr %70, align 4
  %73 = call i64 @oe_get_size_slow(ptr noundef nonnull @to_pack, ptr noundef nonnull %0)
  %.not.i20 = icmp eq i64 %73, %62
  br i1 %.not.i20, label %oe_set_size.exit, label %74

74:                                               ; preds = %69
  call void (ptr, i32, ptr, ...) @BUG_fl(ptr noundef nonnull @.str.1, i32 noundef 151, ptr noundef nonnull @.str.214) #26
  unreachable

oe_set_size.exit:                                 ; preds = %65, %69
  call void @llvm.lifetime.end.p0(i64 8, ptr nonnull %4) #25
  call void @llvm.lifetime.end.p0(i64 4, ptr nonnull %3) #25
  call void @llvm.lifetime.end.p0(i64 80, ptr nonnull %2) #25
  ret void
}